target datalayout = "e-m:e-p270:32:32-p271:32:32-p272:64:64-i64:64-i128:128-f80:128-n8:16:32:64-S128"
target triple = "x86_64-pc-linux-gnu"

; Function Attrs: mustprogress uwtable
define noundef ptr @_ZN14VrmlTranslator6Buffer9GetStringEii(ptr noundef nonnull align 8 dereferenceable(49) %0, i32 noundef %1, i32 noundef %2) unnamed_addr #1 align 2 {
  %4 = alloca ptr, align 8
  %5 = alloca i32, align 4
  %6 = alloca i32, align 4
  %7 = alloca i32, align 4
  %8 = alloca ptr, align 8
  %9 = alloca i32, align 4
  %10 = alloca i32, align 4
  store ptr %0, ptr %4, align 8
  store i32 %1, ptr %5, align 4
  store i32 %2, ptr %6, align 4
  %11 = load ptr, ptr %4, align 8
  %12 = load i32, ptr %6, align 4
  %13 = load i32, ptr %5, align 4
  %14 = sub nsw i32 %12, %13
  store i32 %14, ptr %7, align 4
  %15 = load i32, ptr %7, align 4
  %16 = sext i32 %15 to i64
  %17 = call { i64, i1 } @llvm.umul.with.overflow.i64(i64 %16, i64 4)
  %18 = extractvalue { i64, i1 } %17, 1
  %19 = extractvalue { i64, i1 } %17, 0
  %20 = select i1 %18, i64 -1, i64 %19
  %21 = call noalias noundef nonnull ptr @_Znam(i64 noundef %20) #14
  store ptr %21, ptr %8, align 8
  %22 = load ptr, ptr %11, align 8
  %23 = getelementptr inbounds ptr, ptr %22, i64 6
  %24 = load ptr, ptr %23, align 8
  %25 = call noundef i32 %24(ptr noundef nonnull align 8 dereferenceable(49) %11)
  store i32 %25, ptr %9, align 4
  %26 = load i32, ptr %5, align 4
  %27 = load ptr, ptr %11, align 8
  %28 = getelementptr inbounds ptr, ptr %27, i64 7
  %29 = load ptr, ptr %28, align 8
  call void %29(ptr noundef nonnull align 8 dereferenceable(49) %11, i32 noundef %26)
  store i32 0, ptr %10, align 4
  br label %30

30:                                               ; preds = %43, %3
  %31 = load i32, ptr %10, align 4
  %32 = load i32, ptr %7, align 4
  %33 = icmp slt i32 %31, %32
  br i1 %33, label %34, label %46

34:                                               ; preds = %30
  %35 = load ptr, ptr %11, align 8
  %36 = getelementptr inbounds ptr, ptr %35, i64 3
  %37 = load ptr, ptr %36, align 8
  %38 = call noundef i32 %37(ptr noundef nonnull align 8 dereferenceable(49) %11)
  %39 = load ptr, ptr %8, align 8
  %40 = load i32, ptr %10, align 4
  %41 = sext i32 %40 to i64
  %42 = getelementptr inbounds i32, ptr %39, i64 %41
  store i32 %38, ptr %42, align 4
  br label %43

43:                                               ; preds = %34
  %44 = load i32, ptr %10, align 4
  %45 = add nsw i32 %44, 1
  store i32 %45, ptr %10, align 4
  br label %30, !llvm.loop !7

46:                                               ; preds = %30
  %47 = load i32, ptr %9, align 4
  %48 = load ptr, ptr %11, align 8
  %49 = getelementptr inbounds ptr, ptr %48, i64 7
  %50 = load ptr, ptr %49, align 8
  call void %50(ptr noundef nonnull align 8 dereferenceable(49) %11, i32 noundef %47)
  %51 = load ptr, ptr %8, align 8
  ret ptr %51
}