; Function Attrs: mustprogress uwtable
define noundef ptr @_ZN14VrmlTranslator6Buffer9GetStringEii(ptr noundef nonnull align 8 dereferenceable(49) %0, i32 noundef %1, i32 noundef %2) unnamed_addr #2 align 2 {
  %4 = sub nsw i32 %2, %1
  %5 = zext i32 %4 to i64
  %6 = icmp slt i32 %4, 0
  %7 = shl nuw nsw i64 %5, 2
  %8 = select i1 %6, i64 -1, i64 %7
  %9 = tail call noalias noundef nonnull ptr @_Znam(i64 noundef %8) #21
  %10 = load ptr, ptr %0, align 8
  %11 = getelementptr inbounds i8, ptr %10, i64 48
  %12 = load ptr, ptr %11, align 8
  %13 = tail call noundef i32 %12(ptr noundef nonnull align 8 dereferenceable(49) %0)
  %14 = load ptr, ptr %0, align 8
  %15 = getelementptr inbounds i8, ptr %14, i64 56
  %16 = load ptr, ptr %15, align 8
  tail call void %16(ptr noundef nonnull align 8 dereferenceable(49) %0, i32 noundef %1)
  %17 = icmp sgt i32 %4, 0
  br i1 %17, label %.lr.ph, label %._crit_edge

.lr.ph:                                           ; preds = %3, %.lr.ph
  %indvars.iv = phi i64 [ %indvars.iv.next, %.lr.ph ], [ 0, %3 ]
  %18 = load ptr, ptr %0, align 8
  %19 = getelementptr inbounds i8, ptr %18, i64 24
  %20 = load ptr, ptr %19, align 8
  %21 = tail call noundef i32 %20(ptr noundef nonnull align 8 dereferenceable(49) %0)
  %22 = getelementptr inbounds i32, ptr %9, i64 %indvars.iv
  store i32 %21, ptr %22, align 4
  %indvars.iv.next = add nuw nsw i64 %indvars.iv, 1
  %exitcond.not = icmp eq i64 %indvars.iv.next, %5
  br i1 %exitcond.not, label %._crit_edge, label %.lr.ph, !llvm.loop !8

._crit_edge:                                      ; preds = %.lr.ph, %3
  %23 = load ptr, ptr %0, align 8
  %24 = getelementptr inbounds i8, ptr %23, i64 56
  %25 = load ptr, ptr %24, align 8
  tail call void %25(ptr noundef nonnull align 8 dereferenceable(49) %0, i32 noundef %13)
  ret ptr %9
}